target datalayout = "e-m:e-p270:32:32-p271:32:32-p272:64:64-i64:64-i128:128-f80:128-n8:16:32:64-S128"
target triple = "x86_64-pc-linux-gnu"

%struct._GArray = type { ptr, i32 }
%struct.file_type_subtype_info = type { ptr, ptr, ptr, ptr, i8, i64, ptr, ptr, ptr, ptr }

@file_type_subtype_table_arr = internal global ptr null, align 8
@file_type_subtype_table = internal global ptr null, align 8

; Function Attrs: null_pointer_is_valid sspstrong uwtable
define ptr @wtap_get_file_extensions_list(i32 noundef %0, i1 noundef zeroext %1) #0 {
  %3 = alloca ptr, align 8
  %4 = alloca i32, align 4
  %5 = alloca i8, align 1
  %6 = alloca ptr, align 8
  %7 = alloca ptr, align 8
  %8 = alloca i32, align 4
  store i32 %0, ptr %4, align 4
  %9 = zext i1 %1 to i8
  store i8 %9, ptr %5, align 1
  call void @llvm.lifetime.start.p0(i64 8, ptr %6) #12
  call void @llvm.lifetime.start.p0(i64 8, ptr %7) #12
  %10 = load i32, ptr %4, align 4
  %11 = icmp slt i32 %10, 0
  br i1 %11, label %18, label %12

12:                                               ; preds = %2
  %13 = load i32, ptr %4, align 4
  %14 = load ptr, ptr @file_type_subtype_table_arr, align 8
  %15 = getelementptr inbounds nuw %struct._GArray, ptr %14, i32 0, i32 1
  %16 = load i32, ptr %15, align 8
  %17 = icmp sge i32 %13, %16
  br i1 %17, label %18, label %19

18:                                               ; preds = %12, %2
  store ptr null, ptr %3, align 8
  store i32 1, ptr %8, align 4
  br label %41

19:                                               ; preds = %12
  %20 = load ptr, ptr @file_type_subtype_table, align 8
  %21 = load i32, ptr %4, align 4
  %22 = sext i32 %21 to i64
  %23 = getelementptr %struct.file_type_subtype_info, ptr %20, i64 %22
  %24 = getelementptr inbounds nuw %struct.file_type_subtype_info, ptr %23, i32 0, i32 2
  %25 = load ptr, ptr %24, align 8
  %26 = icmp eq ptr %25, null
  br i1 %26, label %27, label %28

27:                                               ; preds = %19
  store ptr null, ptr %3, align 8
  store i32 1, ptr %8, align 4
  br label %41

28:                                               ; preds = %19
  store ptr null, ptr %6, align 8
  %29 = load i8, ptr %5, align 1, !range !10, !noundef !11
  %30 = trunc i8 %29 to i1
  br i1 %30, label %31, label %33

31:                                               ; preds = %28
  %32 = call ptr @wtap_get_all_compression_type_extensions_list()
  store ptr %32, ptr %7, align 8
  br label %34

33:                                               ; preds = %28
  store ptr null, ptr %7, align 8
  br label %34

34:                                               ; preds = %33, %31
  %35 = load i32, ptr %4, align 4
  %36 = load ptr, ptr %6, align 8
  %37 = load ptr, ptr %7, align 8
  %38 = call ptr @add_extensions_for_file_type_subtype(i32 noundef %35, ptr noundef %36, ptr noundef %37)
  store ptr %38, ptr %6, align 8
  %39 = load ptr, ptr %7, align 8
  call void @g_slist_free(ptr noundef %39)
  %40 = load ptr, ptr %6, align 8
  store ptr %40, ptr %3, align 8
  store i32 1, ptr %8, align 4
  br label %41

41:                                               ; preds = %34, %27, %18
  call void @llvm.lifetime.end.p0(i64 8, ptr %7) #12
  call void @llvm.lifetime.end.p0(i64 8, ptr %6) #12
  %42 = load ptr, ptr %3, align 8
  ret ptr %42
}