; Function Attrs: null_pointer_is_valid sspstrong uwtable
define ptr @wtap_get_file_extensions_list(i32 noundef %0, i1 noundef zeroext %1) local_unnamed_addr #0 {
  %3 = icmp slt i32 %0, 0
  br i1 %3, label %19, label %4

4:                                                ; preds = %2
  %5 = load ptr, ptr @file_type_subtype_table_arr, align 8
  %6 = getelementptr inbounds nuw i8, ptr %5, i64 8
  %7 = load i32, ptr %6, align 8
  %.not = icmp slt i32 %0, %7
  br i1 %.not, label %8, label %19

8:                                                ; preds = %4
  %9 = load ptr, ptr @file_type_subtype_table, align 8
  %10 = zext nneg i32 %0 to i64
  %11 = getelementptr %struct.file_type_subtype_info, ptr %9, i64 %10, i32 2
  %12 = load ptr, ptr %11, align 8
  %13 = icmp eq ptr %12, null
  br i1 %13, label %19, label %14

14:                                               ; preds = %8
  br i1 %1, label %15, label %17

15:                                               ; preds = %14
  %16 = tail call ptr @wtap_get_all_compression_type_extensions_list()
  br label %17

17:                                               ; preds = %14, %15
  %.0 = phi ptr [ %16, %15 ], [ null, %14 ]
  %18 = tail call fastcc ptr @add_extensions_for_file_type_subtype(i32 noundef %0, ptr noundef null, ptr noundef %.0)
  tail call void @g_slist_free(ptr noundef %.0)
  br label %19

19:                                               ; preds = %8, %2, %4, %17
  %.09 = phi ptr [ %18, %17 ], [ null, %4 ], [ null, %2 ], [ null, %8 ]
  ret ptr %.09
}